; Function Attrs: nounwind uwtable
define ptr @l_ExceptT_adapt___rarg(ptr noundef %0, ptr readnone captures(none) %1, ptr readnone captures(none) %2, ptr noundef %3, ptr noundef %4) #0 {
  %6 = getelementptr inbounds nuw i8, ptr %0, i64 8
  %7 = load ptr, ptr %6, align 8, !tbaa !9
  %8 = ptrtoint ptr %7 to i64
  %9 = and i64 %8, 1
  %.not = icmp eq i64 %9, 0
  br i1 %.not, label %10, label %lean_inc.exit18

10:                                               ; preds = %5
  %.val.i = load i32, ptr %7, align 4, !tbaa !4
  %11 = icmp sgt i32 %.val.i, 0
  br i1 %11, label %12, label %14, !prof !13

12:                                               ; preds = %10
  %13 = add nuw i32 %.val.i, 1
  store i32 %13, ptr %7, align 4, !tbaa !4
  br label %lean_inc.exit18

14:                                               ; preds = %10
  %.not.i23 = icmp eq i32 %.val.i, 0
  br i1 %.not.i23, label %lean_inc.exit18, label %15

15:                                               ; preds = %14
  tail call void @lean_inc_ref_cold(ptr noundef nonnull %7) #5
  br label %lean_inc.exit18

lean_inc.exit18:                                  ; preds = %15, %14, %12, %5
  %16 = ptrtoint ptr %0 to i64
  %17 = and i64 %16, 1
  %.not30 = icmp eq i64 %17, 0
  br i1 %.not30, label %18, label %lean_dec.exit16

18:                                               ; preds = %lean_inc.exit18
  %19 = load i32, ptr %0, align 4, !tbaa !4
  %20 = icmp sgt i32 %19, 1
  br i1 %20, label %21, label %23, !prof !13

21:                                               ; preds = %18
  %22 = add nsw i32 %19, -1
  store i32 %22, ptr %0, align 4, !tbaa !4
  br label %lean_dec.exit16

23:                                               ; preds = %18
  %.not.i = icmp eq i32 %19, 0
  br i1 %.not.i, label %lean_dec.exit16, label %24

24:                                               ; preds = %23
  tail call void @lean_dec_ref_cold(ptr noundef nonnull %0) #5
  br label %lean_dec.exit16

lean_dec.exit16:                                  ; preds = %24, %23, %21, %lean_inc.exit18
  %25 = getelementptr inbounds nuw i8, ptr %7, i64 8
  %26 = load ptr, ptr %25, align 8, !tbaa !9
  %27 = ptrtoint ptr %26 to i64
  %28 = and i64 %27, 1
  %.not31 = icmp eq i64 %28, 0
  br i1 %.not31, label %29, label %lean_inc.exit17

29:                                               ; preds = %lean_dec.exit16
  %.val.i24 = load i32, ptr %26, align 4, !tbaa !4
  %30 = icmp sgt i32 %.val.i24, 0
  br i1 %30, label %31, label %33, !prof !13

31:                                               ; preds = %29
  %32 = add nuw i32 %.val.i24, 1
  store i32 %32, ptr %26, align 4, !tbaa !4
  br label %lean_inc.exit17

33:                                               ; preds = %29
  %.not.i25 = icmp eq i32 %.val.i24, 0
  br i1 %.not.i25, label %lean_inc.exit17, label %34

34:                                               ; preds = %33
  tail call void @lean_inc_ref_cold(ptr noundef nonnull %26) #5
  br label %lean_inc.exit17

lean_inc.exit17:                                  ; preds = %34, %33, %31, %lean_dec.exit16
  br i1 %.not, label %35, label %lean_dec.exit15

35:                                               ; preds = %lean_inc.exit17
  %36 = load i32, ptr %7, align 4, !tbaa !4
  %37 = icmp sgt i32 %36, 1
  br i1 %37, label %38, label %40, !prof !13

38:                                               ; preds = %35
  %39 = add nsw i32 %36, -1
  store i32 %39, ptr %7, align 4, !tbaa !4
  br label %lean_dec.exit15

40:                                               ; preds = %35
  %.not.i19 = icmp eq i32 %36, 0
  br i1 %.not.i19, label %lean_dec.exit15, label %41

41:                                               ; preds = %40
  tail call void @lean_dec_ref_cold(ptr noundef nonnull %7) #5
  br label %lean_dec.exit15

lean_dec.exit15:                                  ; preds = %41, %40, %38, %lean_inc.exit17
  %42 = getelementptr inbounds nuw i8, ptr %26, i64 8
  %43 = load ptr, ptr %42, align 8, !tbaa !9
  %44 = ptrtoint ptr %43 to i64
  %45 = and i64 %44, 1
  %.not32 = icmp eq i64 %45, 0
  br i1 %.not32, label %46, label %lean_inc.exit

46:                                               ; preds = %lean_dec.exit15
  %.val.i27 = load i32, ptr %43, align 4, !tbaa !4
  %47 = icmp sgt i32 %.val.i27, 0
  br i1 %47, label %48, label %50, !prof !13

48:                                               ; preds = %46
  %49 = add nuw i32 %.val.i27, 1
  store i32 %49, ptr %43, align 4, !tbaa !4
  br label %lean_inc.exit

50:                                               ; preds = %46
  %.not.i28 = icmp eq i32 %.val.i27, 0
  br i1 %.not.i28, label %lean_inc.exit, label %51

51:                                               ; preds = %50
  tail call void @lean_inc_ref_cold(ptr noundef nonnull %43) #5
  br label %lean_inc.exit

lean_inc.exit:                                    ; preds = %51, %50, %48, %lean_dec.exit15
  br i1 %.not31, label %52, label %lean_dec.exit

52:                                               ; preds = %lean_inc.exit
  %53 = load i32, ptr %26, align 4, !tbaa !4
  %54 = icmp sgt i32 %53, 1
  br i1 %54, label %55, label %57, !prof !13

55:                                               ; preds = %52
  %56 = add nsw i32 %53, -1
  store i32 %56, ptr %26, align 4, !tbaa !4
  br label %lean_dec.exit

57:                                               ; preds = %52
  %.not.i21 = icmp eq i32 %53, 0
  br i1 %.not.i21, label %lean_dec.exit, label %58

58:                                               ; preds = %57
  tail call void @lean_dec_ref_cold(ptr noundef nonnull %26) #5
  br label %lean_dec.exit

lean_dec.exit:                                    ; preds = %58, %57, %55, %lean_inc.exit
  tail call void @lean_inc_heartbeat() #5
  %59 = tail call noalias ptr @mi_malloc_small(i64 noundef 32) #5
  %60 = icmp eq ptr %59, null
  br i1 %60, label %61, label %lean_alloc_closure.exit

61:                                               ; preds = %lean_dec.exit
  tail call void @lean_internal_panic_out_of_memory() #6
  unreachable

lean_alloc_closure.exit:                          ; preds = %lean_dec.exit
  %62 = getelementptr inbounds nuw i8, ptr %59, i64 4
  store i32 1, ptr %59, align 4, !tbaa !4
  store i32 -184549344, ptr %62, align 4
  %63 = getelementptr inbounds nuw i8, ptr %59, i64 8
  store ptr @l_Except_mapError___rarg, ptr %63, align 8, !tbaa !9
  %64 = getelementptr inbounds nuw i8, ptr %59, i64 16
  store i16 2, ptr %64, align 8, !tbaa !11
  %65 = getelementptr inbounds nuw i8, ptr %59, i64 18
  store i16 1, ptr %65, align 2, !tbaa !11
  %66 = getelementptr inbounds nuw i8, ptr %59, i64 24
  store ptr %3, ptr %66, align 8, !tbaa !9
  %67 = tail call ptr @lean_apply_4(ptr noundef %43, ptr noundef nonnull inttoptr (i64 1 to ptr), ptr noundef nonnull inttoptr (i64 1 to ptr), ptr noundef nonnull %59, ptr noundef %4) #5
  ret ptr %67
}